; Function Attrs: mustprogress uwtable
define internal fastcc noundef zeroext i1 @_ZL19license_is_parsableN5vcpkg10StringViewE(ptr %0, i64 %1) unnamed_addr #1 personality ptr @__gxx_personality_v0 {
  %3 = alloca %"struct.vcpkg::ParseMessages", align 8
  %4 = alloca %"class.std::__cxx11::basic_string", align 8
  call void @llvm.lifetime.start.p0(i64 64, ptr nonnull %3) #22
  store i8 0, ptr %3, align 8, !tbaa !1021
  %5 = getelementptr inbounds nuw i8, ptr %3, i64 8
  store i8 0, ptr %5, align 8, !tbaa !104
  %6 = getelementptr inbounds nuw i8, ptr %3, i64 40
  call void @llvm.memset.p0.i64(ptr noundef nonnull align 8 dereferenceable(24) %6, i8 0, i64 24, i1 false)
  invoke void @_ZN5vcpkg29parse_spdx_license_expressionB5cxx11ENS_10StringViewERNS_13ParseMessagesE(ptr dead_on_unwind nonnull writable sret(%"class.std::__cxx11::basic_string") align 8 %4, ptr %0, i64 %1, ptr noundef nonnull align 8 dereferenceable(64) %3)
          to label %7 unwind label %50

7:                                                ; preds = %2
  %8 = load ptr, ptr %4, align 8, !tbaa !102
  %9 = getelementptr inbounds nuw i8, ptr %4, i64 16
  %10 = icmp eq ptr %8, %9
  br i1 %10, label %_ZNKSt7__cxx1112basic_stringIcSt11char_traitsIcESaIcEE11_M_is_localEv.exit.thread.i.i, label %_ZNKSt7__cxx1112basic_stringIcSt11char_traitsIcESaIcEE11_M_is_localEv.exit.i.i

_ZNKSt7__cxx1112basic_stringIcSt11char_traitsIcESaIcEE11_M_is_localEv.exit.thread.i.i: ; preds = %7
  %11 = getelementptr inbounds nuw i8, ptr %4, i64 8
  %12 = load i64, ptr %11, align 8, !tbaa !103
  %13 = icmp ult i64 %12, 16
  call void @llvm.assume(i1 %13)
  br label %_ZNSt7__cxx1112basic_stringIcSt11char_traitsIcESaIcEED2Ev.exit

_ZNKSt7__cxx1112basic_stringIcSt11char_traitsIcESaIcEE11_M_is_localEv.exit.i.i: ; preds = %7
  %14 = load i64, ptr %9, align 8, !tbaa !104
  %15 = add i64 %14, 1
  call void @_ZdlPvm(ptr noundef %8, i64 noundef %15) #24
  br label %_ZNSt7__cxx1112basic_stringIcSt11char_traitsIcESaIcEED2Ev.exit

_ZNSt7__cxx1112basic_stringIcSt11char_traitsIcESaIcEED2Ev.exit: ; preds = %_ZNKSt7__cxx1112basic_stringIcSt11char_traitsIcESaIcEE11_M_is_localEv.exit.thread.i.i, %_ZNKSt7__cxx1112basic_stringIcSt11char_traitsIcESaIcEE11_M_is_localEv.exit.i.i
  %16 = load i8, ptr %3, align 8, !tbaa !1021, !range !15, !noundef !16
  %17 = load ptr, ptr %6, align 8, !tbaa !1043
  %18 = getelementptr inbounds nuw i8, ptr %3, i64 48
  %19 = load ptr, ptr %18, align 8, !tbaa !1040
  %.not4.i.i.i.i.i = icmp eq ptr %17, %19
  br i1 %.not4.i.i.i.i.i, label %_ZSt8_DestroyIPN5vcpkg12ParseMessageES1_EvT_S3_RSaIT0_E.exit.i.i, label %.lr.ph.i.i.i.i.i

.lr.ph.i.i.i.i.i:                                 ; preds = %_ZNSt7__cxx1112basic_stringIcSt11char_traitsIcESaIcEED2Ev.exit, %_ZSt8_DestroyIN5vcpkg12ParseMessageEEvPT_.exit.i.i.i.i.i
  %.05.i.i.i.i.i = phi ptr [ %29, %_ZSt8_DestroyIN5vcpkg12ParseMessageEEvPT_.exit.i.i.i.i.i ], [ %17, %_ZNSt7__cxx1112basic_stringIcSt11char_traitsIcESaIcEED2Ev.exit ]
  %20 = getelementptr inbounds nuw i8, ptr %.05.i.i.i.i.i, i64 72
  %21 = load ptr, ptr %20, align 8, !tbaa !102
  %22 = getelementptr inbounds nuw i8, ptr %.05.i.i.i.i.i, i64 88
  %23 = icmp eq ptr %21, %22
  br i1 %23, label %_ZNKSt7__cxx1112basic_stringIcSt11char_traitsIcESaIcEE11_M_is_localEv.exit.thread.i.i.i.i.i.i.i.i.i.i, label %_ZNKSt7__cxx1112basic_stringIcSt11char_traitsIcESaIcEE11_M_is_localEv.exit.i.i.i.i.i.i.i.i.i.i

_ZNKSt7__cxx1112basic_stringIcSt11char_traitsIcESaIcEE11_M_is_localEv.exit.thread.i.i.i.i.i.i.i.i.i.i: ; preds = %.lr.ph.i.i.i.i.i
  %24 = getelementptr inbounds nuw i8, ptr %.05.i.i.i.i.i, i64 80
  %25 = load i64, ptr %24, align 8, !tbaa !103
  %26 = icmp ult i64 %25, 16
  call void @llvm.assume(i1 %26)
  br label %_ZSt8_DestroyIN5vcpkg12ParseMessageEEvPT_.exit.i.i.i.i.i

_ZNKSt7__cxx1112basic_stringIcSt11char_traitsIcESaIcEE11_M_is_localEv.exit.i.i.i.i.i.i.i.i.i.i: ; preds = %.lr.ph.i.i.i.i.i
  %27 = load i64, ptr %22, align 8, !tbaa !104
  %28 = add i64 %27, 1
  call void @_ZdlPvm(ptr noundef %21, i64 noundef %28) #24
  br label %_ZSt8_DestroyIN5vcpkg12ParseMessageEEvPT_.exit.i.i.i.i.i

_ZSt8_DestroyIN5vcpkg12ParseMessageEEvPT_.exit.i.i.i.i.i: ; preds = %_ZNKSt7__cxx1112basic_stringIcSt11char_traitsIcESaIcEE11_M_is_localEv.exit.i.i.i.i.i.i.i.i.i.i, %_ZNKSt7__cxx1112basic_stringIcSt11char_traitsIcESaIcEE11_M_is_localEv.exit.thread.i.i.i.i.i.i.i.i.i.i
  %29 = getelementptr inbounds nuw i8, ptr %.05.i.i.i.i.i, i64 104
  %.not.i.i.i.i.i = icmp eq ptr %29, %19
  br i1 %.not.i.i.i.i.i, label %_ZSt8_DestroyIPN5vcpkg12ParseMessageES1_EvT_S3_RSaIT0_E.exitthread-pre-split.i.i, label %.lr.ph.i.i.i.i.i, !llvm.loop !1053

_ZSt8_DestroyIPN5vcpkg12ParseMessageES1_EvT_S3_RSaIT0_E.exitthread-pre-split.i.i: ; preds = %_ZSt8_DestroyIN5vcpkg12ParseMessageEEvPT_.exit.i.i.i.i.i
  %.pr.i.i = load ptr, ptr %6, align 8, !tbaa !1043
  br label %_ZSt8_DestroyIPN5vcpkg12ParseMessageES1_EvT_S3_RSaIT0_E.exit.i.i

_ZSt8_DestroyIPN5vcpkg12ParseMessageES1_EvT_S3_RSaIT0_E.exit.i.i: ; preds = %_ZSt8_DestroyIPN5vcpkg12ParseMessageES1_EvT_S3_RSaIT0_E.exitthread-pre-split.i.i, %_ZNSt7__cxx1112basic_stringIcSt11char_traitsIcESaIcEED2Ev.exit
  %30 = phi ptr [ %.pr.i.i, %_ZSt8_DestroyIPN5vcpkg12ParseMessageES1_EvT_S3_RSaIT0_E.exitthread-pre-split.i.i ], [ %17, %_ZNSt7__cxx1112basic_stringIcSt11char_traitsIcESaIcEED2Ev.exit ]
  %.not.i.i.i.i = icmp eq ptr %30, null
  br i1 %.not.i.i.i.i, label %_ZNSt6vectorIN5vcpkg12ParseMessageESaIS1_EED2Ev.exit.i, label %31

31:                                               ; preds = %_ZSt8_DestroyIPN5vcpkg12ParseMessageES1_EvT_S3_RSaIT0_E.exit.i.i
  %32 = getelementptr inbounds nuw i8, ptr %3, i64 56
  %33 = load ptr, ptr %32, align 8, !tbaa !1054
  %34 = ptrtoint ptr %33 to i64
  %35 = ptrtoint ptr %30 to i64
  %36 = sub i64 %34, %35
  call void @_ZdlPvm(ptr noundef nonnull %30, i64 noundef %36) #24
  br label %_ZNSt6vectorIN5vcpkg12ParseMessageESaIS1_EED2Ev.exit.i

_ZNSt6vectorIN5vcpkg12ParseMessageESaIS1_EED2Ev.exit.i: ; preds = %31, %_ZSt8_DestroyIPN5vcpkg12ParseMessageES1_EvT_S3_RSaIT0_E.exit.i.i
  %37 = load i8, ptr %3, align 8, !tbaa !1021, !range !15, !noundef !16
  %38 = trunc nuw i8 %37 to i1
  br i1 %38, label %39, label %_ZN5vcpkg13ParseMessagesD2Ev.exit

39:                                               ; preds = %_ZNSt6vectorIN5vcpkg12ParseMessageESaIS1_EED2Ev.exit.i
  %40 = load ptr, ptr %5, align 8, !tbaa !102
  %41 = getelementptr inbounds nuw i8, ptr %3, i64 24
  %42 = icmp eq ptr %40, %41
  br i1 %42, label %_ZNKSt7__cxx1112basic_stringIcSt11char_traitsIcESaIcEE11_M_is_localEv.exit.thread.i.i.i.i.i, label %_ZNKSt7__cxx1112basic_stringIcSt11char_traitsIcESaIcEE11_M_is_localEv.exit.i.i.i.i.i

_ZNKSt7__cxx1112basic_stringIcSt11char_traitsIcESaIcEE11_M_is_localEv.exit.thread.i.i.i.i.i: ; preds = %39
  %43 = getelementptr inbounds nuw i8, ptr %3, i64 16
  %44 = load i64, ptr %43, align 8, !tbaa !103
  %45 = icmp ult i64 %44, 16
  call void @llvm.assume(i1 %45)
  br label %_ZN5vcpkg13ParseMessagesD2Ev.exit

_ZNKSt7__cxx1112basic_stringIcSt11char_traitsIcESaIcEE11_M_is_localEv.exit.i.i.i.i.i: ; preds = %39
  %46 = load i64, ptr %41, align 8, !tbaa !104
  %47 = add i64 %46, 1
  call void @_ZdlPvm(ptr noundef %40, i64 noundef %47) #24
  br label %_ZN5vcpkg13ParseMessagesD2Ev.exit

_ZN5vcpkg13ParseMessagesD2Ev.exit:                ; preds = %_ZNSt6vectorIN5vcpkg12ParseMessageESaIS1_EED2Ev.exit.i, %_ZNKSt7__cxx1112basic_stringIcSt11char_traitsIcESaIcEE11_M_is_localEv.exit.thread.i.i.i.i.i, %_ZNKSt7__cxx1112basic_stringIcSt11char_traitsIcESaIcEE11_M_is_localEv.exit.i.i.i.i.i
  %48 = trunc nuw i8 %16 to i1
  %49 = xor i1 %48, true
  call void @llvm.lifetime.end.p0(i64 64, ptr nonnull %3) #22
  ret i1 %49

50:                                               ; preds = %2
  %51 = landingpad { ptr, i32 }
          cleanup
  call void @_ZN5vcpkg13ParseMessagesD2Ev(ptr noundef nonnull align 8 dereferenceable(64) %3) #22
  call void @llvm.lifetime.end.p0(i64 64, ptr nonnull %3) #22
  resume { ptr, i32 } %51
}